target datalayout = "e-m:e-p270:32:32-p271:32:32-p272:64:64-i64:64-i128:128-f80:128-n8:16:32:64-S128"
target triple = "x86_64-pc-linux-gnu"

%struct.FullTransactionId = type { i64 }
%struct.pg_atomic_uint32 = type { i32 }
%struct.LWLock = type { i16, %struct.pg_atomic_uint32, %struct.proclist_head }
%struct.proclist_head = type { i32, i32 }
%union.LWLockPadded = type { %struct.LWLock, [112 x i8] }
%struct.TransamVariablesData = type { i32, i32, %struct.FullTransactionId, i32, i32, i32, i32, i32, i32, i32, i32, %struct.FullTransactionId, i64, i32 }

@TransamVariables = dso_local global ptr null, align 8
@MainLWLockArray = external global ptr, align 8

; Function Attrs: nounwind uwtable
define dso_local i64 @ReadNextFullTransactionId() #0 {
  %1 = alloca %struct.FullTransactionId, align 8
  %2 = load ptr, ptr @MainLWLockArray, align 8
  %3 = getelementptr inbounds %union.LWLockPadded, ptr %2, i64 3
  %4 = call zeroext i1 @LWLockAcquire(ptr noundef %3, i32 noundef 1)
  %5 = load ptr, ptr @TransamVariables, align 8
  %6 = getelementptr inbounds nuw %struct.TransamVariablesData, ptr %5, i32 0, i32 2
  call void @llvm.memcpy.p0.p0.i64(ptr align 8 %1, ptr align 8 %6, i64 8, i1 false)
  %7 = load ptr, ptr @MainLWLockArray, align 8
  %8 = getelementptr inbounds %union.LWLockPadded, ptr %7, i64 3
  call void @LWLockRelease(ptr noundef %8)
  %9 = getelementptr inbounds nuw %struct.FullTransactionId, ptr %1, i32 0, i32 0
  %10 = load i64, ptr %9, align 8
  ret i64 %10
}