; Function Attrs: nounwind uwtable
define dso_local i64 @ReadNextFullTransactionId() local_unnamed_addr #1 {
  %1 = load ptr, ptr @MainLWLockArray, align 8
  %2 = getelementptr inbounds nuw i8, ptr %1, i64 384
  %3 = tail call zeroext i1 @LWLockAcquire(ptr noundef nonnull %2, i32 noundef 1) #8
  %4 = load ptr, ptr @TransamVariables, align 8
  %5 = getelementptr inbounds nuw i8, ptr %4, i64 8
  %.sroa.0.0.copyload = load i64, ptr %5, align 8
  %6 = load ptr, ptr @MainLWLockArray, align 8
  %7 = getelementptr inbounds nuw i8, ptr %6, i64 384
  tail call void @LWLockRelease(ptr noundef nonnull %7) #8
  ret i64 %.sroa.0.0.copyload
}